; Function Attrs: mustprogress nofree norecurse nosync nounwind willreturn memory(read, argmem: readwrite, inaccessiblemem: none) uwtable
define range(i32 0, 65536) i32 @ff_tget_short(ptr noundef captures(none) %0, i32 noundef %1) local_unnamed_addr #2 {
  %.not = icmp eq i32 %1, 0
  %3 = getelementptr inbounds nuw i8, ptr %0, i64 8
  %4 = load ptr, ptr %3, align 8, !tbaa !10
  %5 = load ptr, ptr %0, align 8, !tbaa !14
  %6 = ptrtoint ptr %4 to i64
  %7 = ptrtoint ptr %5 to i64
  %8 = sub i64 %6, %7
  %9 = icmp slt i64 %8, 2
  br i1 %.not, label %15, label %10

10:                                               ; preds = %2
  br i1 %9, label %11, label %12

11:                                               ; preds = %10
  store ptr %4, ptr %0, align 8, !tbaa !14
  br label %bytestream2_get_le16.exit

12:                                               ; preds = %10
  %13 = getelementptr inbounds nuw i8, ptr %5, i64 2
  store ptr %13, ptr %0, align 8, !tbaa !15
  %14 = load i16, ptr %5, align 1, !tbaa !16
  br label %bytestream2_get_le16.exit

15:                                               ; preds = %2
  br i1 %9, label %16, label %17

16:                                               ; preds = %15
  store ptr %4, ptr %0, align 8, !tbaa !14
  br label %bytestream2_get_le16.exit

17:                                               ; preds = %15
  %18 = getelementptr inbounds nuw i8, ptr %5, i64 2
  store ptr %18, ptr %0, align 8, !tbaa !15
  %19 = load i16, ptr %5, align 1, !tbaa !16
  %20 = tail call i16 @llvm.bswap.i16(i16 %19)
  br label %bytestream2_get_le16.exit

bytestream2_get_le16.exit:                        ; preds = %17, %16, %12, %11
  %.shrunk = phi i16 [ 0, %11 ], [ %14, %12 ], [ 0, %16 ], [ %20, %17 ]
  %21 = zext i16 %.shrunk to i32
  ret i32 %21
}